target datalayout = "e-m:e-p270:32:32-p271:32:32-p272:64:64-i64:64-i128:128-f80:128-n8:16:32:64-S128"
target triple = "x86_64-pc-linux-gnu"

%struct._zend_phar_globals = type { %struct._zend_array, %struct._zend_array, ptr, %struct._zend_array, i32, ptr, i8, i8, i8, i8, i8, i8, i8, i8, i8, i8, i8, i8, ptr, ptr, ptr, ptr, ptr, ptr, ptr, ptr, ptr, ptr, ptr, ptr, ptr, ptr, ptr, ptr, ptr, ptr, ptr, ptr, ptr, ptr, ptr, i32, i8, ptr, i32, ptr, i32, ptr, i32, ptr, %struct._zend_array }
%struct._zend_array = type { %struct._zend_refcounted_h, %union.anon.0, i32, %union.anon.1, i32, i32, i32, i32, i64, ptr }
%struct._zend_refcounted_h = type { i32, %union.anon }
%union.anon = type { i32 }
%union.anon.0 = type { i32 }
%union.anon.1 = type { ptr }
%struct._zend_executor_globals = type { %struct._zval_struct, %struct._zval_struct, [32 x ptr], ptr, ptr, %struct._zend_array, %struct._zend_array, ptr, i32, i8, %struct._zval_struct, i32, ptr, ptr, ptr, ptr, ptr, ptr, i64, ptr, ptr, i32, ptr, i32, i64, i32, i32, i32, i8, i8, %struct.zend_atomic_bool_s, %struct.zend_atomic_bool_s, ptr, i64, ptr, ptr, %struct._zend_array, %struct._zend_array, i32, i8, %struct._zval_struct, %struct._zval_struct, %struct._zend_stack, %struct._zend_stack, %struct._zend_stack, ptr, i32, i32, i64, ptr, ptr, ptr, %struct._zend_objects_store, %struct._zend_lazy_objects_store, ptr, ptr, ptr, [3 x %struct._zend_op], ptr, i8, i8, i64, i32, i32, ptr, [16 x %struct._HashTableIterator], ptr, %union._zend_function, %struct._zend_op, %struct._zend_array, i64, %struct.zend_get_gc_buffer, ptr, ptr, ptr, i64, i8, i32, ptr, ptr, i64, %struct._zend_call_stack, i64, i64, %struct._zend_strtod_state, [6 x ptr] }
%struct.zend_atomic_bool_s = type { i8 }
%struct._zval_struct = type { %union._zend_value, %union.anon.3, %union.anon.6 }
%union._zend_value = type { i64 }
%union.anon.3 = type { i32 }
%union.anon.6 = type { i32 }
%struct._zend_stack = type { i32, i32, i32, ptr }
%struct._zend_objects_store = type { ptr, i32, i32, i32 }
%struct._zend_lazy_objects_store = type { %struct._zend_array }
%struct._HashTableIterator = type { ptr, i32, i32 }
%union._zend_function = type { %struct._zend_op_array }
%struct._zend_op_array = type { i8, [3 x i8], i32, ptr, ptr, ptr, i32, i32, ptr, ptr, ptr, ptr, i32, ptr, i32, i32, i32, ptr, ptr, ptr, ptr, ptr, i32, i32, ptr, ptr, ptr, i32, i32, i32, i32, ptr, ptr, [6 x ptr] }
%struct._zend_op = type { ptr, %union._znode_op, %union._znode_op, %union._znode_op, i32, i32, i8, i8, i8, i8 }
%union._znode_op = type { i32 }
%struct.zend_get_gc_buffer = type { ptr, ptr, ptr }
%struct._zend_call_stack = type { ptr, i64 }
%struct._zend_strtod_state = type { [8 x ptr], ptr, ptr }
%struct._zend_execute_data = type { ptr, ptr, ptr, ptr, %struct._zval_struct, ptr, ptr, ptr, ptr }

@phar_globals = external global %struct._zend_phar_globals, align 8
@executor_globals = external global %struct._zend_executor_globals, align 8
@.str.12 = private unnamed_addr constant [2 x i8] c"p\00", align 1

; Function Attrs: nounwind uwtable
define hidden void @zif_phar_is_readable(ptr noundef %0, ptr noundef %1) #0 {
  %3 = alloca ptr, align 8
  %4 = alloca ptr, align 8
  %5 = alloca ptr, align 8
  %6 = alloca i64, align 8
  %7 = alloca i32, align 4
  store ptr %0, ptr %3, align 8, !tbaa !4
  store ptr %1, ptr %4, align 8, !tbaa !9
  %8 = load i8, ptr getelementptr inbounds nuw (%struct._zend_phar_globals, ptr @phar_globals, i32 0, i32 13), align 1, !tbaa !11, !range !21, !noundef !22
  %9 = trunc i8 %8 to i1
  br i1 %9, label %14, label %10

10:                                               ; preds = %2
  %11 = load ptr, ptr getelementptr inbounds nuw (%struct._zend_phar_globals, ptr @phar_globals, i32 0, i32 35), align 8, !tbaa !122
  %12 = load ptr, ptr %3, align 8, !tbaa !4
  %13 = load ptr, ptr %4, align 8, !tbaa !9
  call void %11(ptr noundef %12, ptr noundef %13)
  br label %36

14:                                               ; preds = %2
  call void @llvm.lifetime.start.p0(i64 8, ptr %5) #11
  call void @llvm.lifetime.start.p0(i64 8, ptr %6) #11
  %15 = load ptr, ptr %3, align 8, !tbaa !4
  %16 = getelementptr inbounds nuw %struct._zend_execute_data, ptr %15, i32 0, i32 4
  %17 = getelementptr inbounds nuw %struct._zval_struct, ptr %16, i32 0, i32 2
  %18 = load i32, ptr %17, align 4, !tbaa !23
  %19 = call i32 (i32, ptr, ...) @zend_parse_parameters(i32 noundef %18, ptr noundef @.str.12, ptr noundef %5, ptr noundef %6)
  %20 = icmp eq i32 %19, -1
  br i1 %20, label %21, label %27

21:                                               ; preds = %14
  br label %22

22:                                               ; preds = %21
  %23 = load ptr, ptr getelementptr inbounds nuw (%struct._zend_executor_globals, ptr @executor_globals, i32 0, i32 54), align 8, !tbaa !24
  %24 = icmp ne ptr %23, null
  call void @llvm.assume(i1 %24)
  store i32 1, ptr %7, align 4
  br label %33

25:                                               ; No predecessors!
  br label %26

26:                                               ; preds = %25
  br label %27

27:                                               ; preds = %26, %14
  %28 = load ptr, ptr %5, align 8, !tbaa !51
  %29 = load i64, ptr %6, align 8, !tbaa !57
  %30 = load ptr, ptr getelementptr inbounds nuw (%struct._zend_phar_globals, ptr @phar_globals, i32 0, i32 35), align 8, !tbaa !122
  %31 = load ptr, ptr %3, align 8, !tbaa !4
  %32 = load ptr, ptr %4, align 8, !tbaa !9
  call void @phar_file_stat(ptr noundef %28, i64 noundef %29, i32 noundef 10, ptr noundef %30, ptr noundef %31, ptr noundef %32)
  store i32 0, ptr %7, align 4
  br label %33

33:                                               ; preds = %27, %22
  call void @llvm.lifetime.end.p0(i64 8, ptr %6) #11
  call void @llvm.lifetime.end.p0(i64 8, ptr %5) #11
  %34 = load i32, ptr %7, align 4
  switch i32 %34, label %37 [
    i32 0, label %35
    i32 1, label %36
  ]

35:                                               ; preds = %33
  br label %36

36:                                               ; preds = %33, %35, %10
  ret void

37:                                               ; preds = %33
  unreachable
}